target datalayout = "e-m:e-p270:32:32-p271:32:32-p272:64:64-i64:64-i128:128-f80:128-n8:16:32:64-S128"
target triple = "x86_64-pc-linux-gnu"

%struct.AVRational = type { i32, i32 }
%struct.AVFormatContext = type { ptr, ptr, ptr, ptr, ptr, i32, i32, ptr, i32, ptr, i32, ptr, ptr, i64, i64, i64, i32, i32, i32, i64, i64, ptr, i32, i32, ptr, i32, i32, i32, i32, ptr, i64, i32, i32, %struct.AVIOInterruptCB, i32, i32, i32, i32, i64, i32, i32, i32, i32, i32, i32, i32, i32, i32, i32, i32, i32, i64, i32, i32, i32, i32, i32, ptr, ptr, ptr, ptr, i32, ptr, ptr, ptr, ptr, i32, ptr, ptr, i64, ptr, ptr, ptr, i64 }
%struct.AVIOInterruptCB = type { ptr, ptr }
%struct.WAVDemuxContext = type { ptr, i64, i32, ptr, i64, i32, i32, i32, i32, i32, i32, i32, i32, i32, i32, i32, i32 }
%struct.AVStream = type { ptr, i32, i32, ptr, ptr, %struct.AVRational, i64, i64, i64, i32, i32, %struct.AVRational, ptr, %struct.AVRational, %struct.AVPacket, i32, %struct.AVRational, i32 }
%struct.AVPacket = type { ptr, i64, i64, ptr, i32, i32, i32, ptr, i32, i64, i64, ptr, ptr, %struct.AVRational }
%struct.AVCodecParameters = type { i32, i32, i32, ptr, i32, ptr, i32, i32, i64, i32, i32, i32, i32, i32, i32, %struct.AVRational, %struct.AVRational, i32, i32, i32, i32, i32, i32, i32, %struct.AVChannelLayout, i32, i32, i32, i32, i32, i32 }
%struct.AVChannelLayout = type { i32, i32, %union.anon.0, ptr }
%union.anon.0 = type { i64 }

@.str.54 = private unnamed_addr constant [24 x i8] c"Cannot check for SPDIF\0A\00", align 1

; Function Attrs: alwaysinline nounwind uwtable
define internal i64 @avio_tell(ptr noundef %0) #4 {
  %2 = alloca ptr, align 8
  store ptr %0, ptr %2, align 8, !tbaa !33
  %3 = load ptr, ptr %2, align 8, !tbaa !33
  %4 = call i64 @avio_seek(ptr noundef %3, i64 noundef 0, i32 noundef 1)
  ret i64 %4
}

; Function Attrs: nounwind uwtable
define internal void @set_spdif(ptr noundef %0, ptr noundef %1) #0 {
  %3 = alloca ptr, align 8
  %4 = alloca ptr, align 8
  %5 = alloca i32, align 4
  %6 = alloca i32, align 4
  %7 = alloca i32, align 4
  %8 = alloca ptr, align 8
  %9 = alloca i64, align 8
  store ptr %0, ptr %3, align 8, !tbaa !14
  store ptr %1, ptr %4, align 8, !tbaa !37
  %10 = load ptr, ptr %3, align 8, !tbaa !14
  %11 = getelementptr inbounds nuw %struct.AVFormatContext, ptr %10, i32 0, i32 7
  %12 = load ptr, ptr %11, align 8, !tbaa !89
  %13 = getelementptr inbounds ptr, ptr %12, i64 0
  %14 = load ptr, ptr %13, align 8, !tbaa !34
  %15 = getelementptr inbounds nuw %struct.AVStream, ptr %14, i32 0, i32 3
  %16 = load ptr, ptr %15, align 8, !tbaa !55
  %17 = getelementptr inbounds nuw %struct.AVCodecParameters, ptr %16, i32 0, i32 2
  %18 = load i32, ptr %17, align 8, !tbaa !123
  %19 = icmp eq i32 %18, 1
  br i1 %19, label %20, label %83

20:                                               ; preds = %2
  call void @llvm.lifetime.start.p0(i64 4, ptr %5) #12
  call void @llvm.lifetime.start.p0(i64 4, ptr %6) #12
  store i32 65536, ptr %6, align 4, !tbaa !18
  call void @llvm.lifetime.start.p0(i64 4, ptr %7) #12
  %21 = load ptr, ptr %3, align 8, !tbaa !14
  %22 = getelementptr inbounds nuw %struct.AVFormatContext, ptr %21, i32 0, i32 4
  %23 = load ptr, ptr %22, align 8, !tbaa !19
  %24 = load i32, ptr %6, align 4, !tbaa !18
  %25 = sext i32 %24 to i64
  %26 = call i32 @ffio_ensure_seekback(ptr noundef %23, i64 noundef %25)
  store i32 %26, ptr %7, align 4, !tbaa !18
  %27 = load i32, ptr %7, align 4, !tbaa !18
  %28 = icmp sge i32 %27, 0
  br i1 %28, label %29, label %77

29:                                               ; preds = %20
  call void @llvm.lifetime.start.p0(i64 8, ptr %8) #12
  %30 = load i32, ptr %6, align 4, !tbaa !18
  %31 = add nsw i32 %30, 64
  %32 = sext i32 %31 to i64
  %33 = call noalias ptr @av_malloc(i64 noundef %32)
  store ptr %33, ptr %8, align 8, !tbaa !114
  %34 = load ptr, ptr %8, align 8, !tbaa !114
  %35 = icmp ne ptr %34, null
  br i1 %35, label %37, label %36

36:                                               ; preds = %29
  store i32 -12, ptr %7, align 4, !tbaa !18
  br label %76

37:                                               ; preds = %29
  call void @llvm.lifetime.start.p0(i64 8, ptr %9) #12
  %38 = load ptr, ptr %3, align 8, !tbaa !14
  %39 = getelementptr inbounds nuw %struct.AVFormatContext, ptr %38, i32 0, i32 4
  %40 = load ptr, ptr %39, align 8, !tbaa !19
  %41 = call i64 @avio_tell(ptr noundef %40)
  store i64 %41, ptr %9, align 8, !tbaa !16
  %42 = load ptr, ptr %3, align 8, !tbaa !14
  %43 = getelementptr inbounds nuw %struct.AVFormatContext, ptr %42, i32 0, i32 4
  %44 = load ptr, ptr %43, align 8, !tbaa !19
  %45 = load ptr, ptr %8, align 8, !tbaa !114
  %46 = load i32, ptr %6, align 4, !tbaa !18
  %47 = call i32 @avio_read(ptr noundef %44, ptr noundef %45, i32 noundef %46)
  store i32 %47, ptr %7, align 4, !tbaa !18
  store i32 %47, ptr %6, align 4, !tbaa !18
  %48 = load i32, ptr %6, align 4, !tbaa !18
  %49 = icmp sge i32 %48, 0
  br i1 %49, label %50, label %69

50:                                               ; preds = %37
  %51 = load ptr, ptr %8, align 8, !tbaa !114
  %52 = load i32, ptr %6, align 4, !tbaa !18
  %53 = call i32 @ff_spdif_probe(ptr noundef %51, i32 noundef %52, ptr noundef %5)
  store i32 %53, ptr %7, align 4, !tbaa !18
  %54 = load i32, ptr %7, align 4, !tbaa !18
  %55 = icmp sgt i32 %54, 50
  br i1 %55, label %56, label %68

56:                                               ; preds = %50
  %57 = load i32, ptr %5, align 4, !tbaa !18
  %58 = load ptr, ptr %3, align 8, !tbaa !14
  %59 = getelementptr inbounds nuw %struct.AVFormatContext, ptr %58, i32 0, i32 7
  %60 = load ptr, ptr %59, align 8, !tbaa !89
  %61 = getelementptr inbounds ptr, ptr %60, i64 0
  %62 = load ptr, ptr %61, align 8, !tbaa !34
  %63 = getelementptr inbounds nuw %struct.AVStream, ptr %62, i32 0, i32 3
  %64 = load ptr, ptr %63, align 8, !tbaa !55
  %65 = getelementptr inbounds nuw %struct.AVCodecParameters, ptr %64, i32 0, i32 1
  store i32 %57, ptr %65, align 4, !tbaa !59
  %66 = load ptr, ptr %4, align 8, !tbaa !37
  %67 = getelementptr inbounds nuw %struct.WAVDemuxContext, ptr %66, i32 0, i32 13
  store i32 1, ptr %67, align 8, !tbaa !90
  br label %68

68:                                               ; preds = %56, %50
  br label %69

69:                                               ; preds = %68, %37
  %70 = load ptr, ptr %3, align 8, !tbaa !14
  %71 = getelementptr inbounds nuw %struct.AVFormatContext, ptr %70, i32 0, i32 4
  %72 = load ptr, ptr %71, align 8, !tbaa !19
  %73 = load i64, ptr %9, align 8, !tbaa !16
  %74 = call i64 @avio_seek(ptr noundef %72, i64 noundef %73, i32 noundef 0)
  %75 = load ptr, ptr %8, align 8, !tbaa !114
  call void @av_free(ptr noundef %75)
  call void @llvm.lifetime.end.p0(i64 8, ptr %9) #12
  br label %76

76:                                               ; preds = %69, %36
  call void @llvm.lifetime.end.p0(i64 8, ptr %8) #12
  br label %77

77:                                               ; preds = %76, %20
  %78 = load i32, ptr %7, align 4, !tbaa !18
  %79 = icmp slt i32 %78, 0
  br i1 %79, label %80, label %82

80:                                               ; preds = %77
  %81 = load ptr, ptr %3, align 8, !tbaa !14
  call void (ptr, i32, ptr, ...) @av_log(ptr noundef %81, i32 noundef 24, ptr noundef @.str.54)
  br label %82

82:                                               ; preds = %80, %77
  call void @llvm.lifetime.end.p0(i64 4, ptr %7) #12
  call void @llvm.lifetime.end.p0(i64 4, ptr %6) #12
  call void @llvm.lifetime.end.p0(i64 4, ptr %5) #12
  br label %83

83:                                               ; preds = %82, %2
  ret void
}