; Function Attrs: nounwind uwtable
define internal fastcc void @set_spdif(ptr noundef %0, ptr noundef writeonly captures(none) %1) unnamed_addr #1 {
  %3 = alloca i32, align 4
  %4 = getelementptr inbounds nuw i8, ptr %0, i64 48
  %5 = load ptr, ptr %4, align 8, !tbaa !93
  %6 = load ptr, ptr %5, align 8, !tbaa !94
  %7 = getelementptr inbounds nuw i8, ptr %6, i64 16
  %8 = load ptr, ptr %7, align 8, !tbaa !33
  %9 = getelementptr inbounds nuw i8, ptr %8, i64 8
  %10 = load i32, ptr %9, align 8, !tbaa !111
  %11 = icmp eq i32 %10, 1
  br i1 %11, label %12, label %41

12:                                               ; preds = %2
  call void @llvm.lifetime.start.p0(i64 4, ptr nonnull %3) #10
  %13 = getelementptr inbounds nuw i8, ptr %0, i64 32
  %14 = load ptr, ptr %13, align 8, !tbaa !12
  %15 = tail call i32 @ffio_ensure_seekback(ptr noundef %14, i64 noundef 65536) #10
  %16 = icmp sgt i32 %15, -1
  br i1 %16, label %17, label %.critedge

17:                                               ; preds = %12
  %18 = tail call noalias ptr @av_malloc(i64 noundef 65600) #10
  %.not = icmp eq ptr %18, null
  br i1 %.not, label %.critedge, label %19

19:                                               ; preds = %17
  %20 = load ptr, ptr %13, align 8, !tbaa !12
  %21 = tail call i64 @avio_seek(ptr noundef %20, i64 noundef 0, i32 noundef 1) #10
  %22 = load ptr, ptr %13, align 8, !tbaa !12
  %23 = tail call i32 @avio_read(ptr noundef %22, ptr noundef nonnull %18, i32 noundef 65536) #10
  %24 = icmp sgt i32 %23, -1
  br i1 %24, label %25, label %36

25:                                               ; preds = %19
  %26 = call i32 @ff_spdif_probe(ptr noundef nonnull %18, i32 noundef %23, ptr noundef nonnull %3) #10
  %27 = icmp sgt i32 %26, 50
  br i1 %27, label %28, label %36

28:                                               ; preds = %25
  %29 = load i32, ptr %3, align 4, !tbaa !112
  %30 = load ptr, ptr %4, align 8, !tbaa !93
  %31 = load ptr, ptr %30, align 8, !tbaa !94
  %32 = getelementptr inbounds nuw i8, ptr %31, i64 16
  %33 = load ptr, ptr %32, align 8, !tbaa !33
  %34 = getelementptr inbounds nuw i8, ptr %33, i64 4
  store i32 %29, ptr %34, align 4, !tbaa !40
  %35 = getelementptr inbounds nuw i8, ptr %1, i64 72
  store i32 1, ptr %35, align 8, !tbaa !95
  br label %36

36:                                               ; preds = %25, %28, %19
  %.2 = phi i32 [ %26, %28 ], [ %26, %25 ], [ %23, %19 ]
  %37 = load ptr, ptr %13, align 8, !tbaa !12
  %38 = call i64 @avio_seek(ptr noundef %37, i64 noundef %21, i32 noundef 0) #10
  call void @av_free(ptr noundef nonnull %18) #10
  %39 = icmp slt i32 %.2, 0
  br i1 %39, label %.critedge, label %40

.critedge:                                        ; preds = %12, %17, %36
  call void (ptr, i32, ptr, ...) @av_log(ptr noundef nonnull %0, i32 noundef 24, ptr noundef nonnull @.str.54) #10
  br label %40

40:                                               ; preds = %.critedge, %36
  call void @llvm.lifetime.end.p0(i64 4, ptr nonnull %3) #10
  br label %41

41:                                               ; preds = %40, %2
  ret void
}